Certificate:
    Data:
        Version: 3 (0x2)
        Serial Number:
            d6:ff:2b:19:99:06:17:38
    Signature Algorithm: sha1WithRSAEncryption
        Issuer: CN=SSLBumpProxy CA
        Validity
            Not Before: Jan  1 00:00:00 2013 GMT
            Not After : Jan  1 00:00:00 2023 GMT
        Subject: CN=SSLBumpProxy CA
        Subject Public Key Info:
            Public Key Algorithm: rsaEncryption
                Public-Key: (2048 bit)
                Modulus:
                    00:cf:e3:a4:c1:33:36:ae:72:3d:c0:dd:ce:1a:19:
                    f9:e9:66:f3:d9:bb:b8:5f:70:39:4d:4b:a3:b8:35:
                    64:72:5b:2d:16:c3:06:97:18:11:bf:c1:ee:b1:8a:
                    06:59:46:2d:c5:fd:07:f8:d1:ad:b6:6b:b6:29:39:
                    97:46:d6:9b:ec:0e:27:c8:df:25:37:86:da:11:76:
                    2b:0c:25:0c:4d:d9:ce:c1:59:24:4e:cc:cb:9d:2f:
                    38:10:b2:bc:9c:67:85:4d:bf:55:2a:32:6c:6d:8c:
                    ae:21:52:cf:15:17:3b:06:c2:f1:fb:46:fc:a9:fb:
                    6c:76:f2:22:20:7e:f2:a8:d6:59:79:e2:51:2b:6d:
                    7b:d4:ee:ef:f3:aa:ca:21:2b:55:ee:7d:02:0b:80:
                    b2:bc:c8:27:79:72:ab:ab:75:6c:23:71:9a:e6:99:
                    17:6e:ec:ab:5b:1c:79:a0:b5:e9:f7:27:57:97:57:
                    f9:7e:1e:47:5e:f4:9a:70:07:ed:50:b0:0c:bd:72:
                    bb:44:8a:b7:0d:d1:b9:30:f8:4b:b1:67:eb:f3:27:
                    5c:ca:99:39:58:df:8b:9c:9c:c0:a1:88:ae:5a:9f:
                    14:31:9e:ab:70:f5:74:c0:5a:a7:87:f2:f7:6e:83:
                    66:f1:5e:4c:8c:f3:35:3a:05:d8:b4:b0:ca:cb:fd:
                    f0:43
                Exponent: 65537 (0x10001)
        X509v3 extensions:
            X509v3 Subject Key Identifier: 
                69:CA:9E:7F:56:87:34:B9:CD:00:F6:F1:CD:F1:1D:D2:5D:7C:E6:21
            X509v3 Authority Key Identifier: 
                keyid:69:CA:9E:7F:56:87:34:B9:CD:00:F6:F1:CD:F1:1D:D2:5D:7C:E6:21

            X509v3 Basic Constraints: 
                CA:TRUE
    Signature Algorithm: sha1WithRSAEncryption
         5d:9c:0b:97:c7:0c:8c:74:02:2b:e4:58:fb:7a:8e:86:85:75:
         35:77:a3:3a:d3:b8:a8:c3:71:aa:75:87:27:97:ea:35:f7:76:
         2a:ab:bd:88:5d:a0:f3:75:e1:52:47:43:9a:35:b9:e0:11:4b:
         c4:40:24:30:1f:fa:b2:aa:c0:45:05:65:b7:c4:bd:e7:2a:4a:
         91:08:82:db:92:d9:9f:22:8c:f8:bc:6d:fd:1b:90:e5:b1:15:
         24:2c:6d:46:10:c3:4a:ec:80:65:04:5c:dc:e7:4b:b2:ac:f0:
         83:ee:36:47:c7:a8:17:67:1b:d3:a7:04:8e:e0:ef:b7:0e:c7:
         c6:a1:39:0b:d8:66:ce:75:00:7e:75:a4:d8:05:57:8d:51:ac:
         9b:97:4a:45:56:c3:d4:6f:5d:1a:a0:20:a5:fd:78:ca:31:26:
         fc:2d:9a:5e:5d:41:51:18:4e:a9:b9:a2:e0:ed:af:41:4e:16:
         36:5a:e4:28:f8:bd:bb:72:40:8c:be:df:42:e1:8b:f8:47:0a:
         46:7f:19:1a:57:72:cb:45:60:84:02:cd:1f:f3:30:03:63:f4:
         03:95:9e:01:37:a9:0f:42:d9:5a:d9:61:a8:c6:4c:e6:ee:18:
         d1:a2:9e:34:4a:09:5f:83:70:8d:2e:8b:90:ed:ff:51:32:84:
         19:e0:59:d8
-----BEGIN CERTIFICATE-----
MIIDCzCCAfOgAwIBAgIJANb/KxmZBhc4MA0GCSqGSIb3DQEBBQUAMBoxGDAWBgNV
BAMMD1NTTEJ1bXBQcm94eSBDQTAiGA8yMDEzMDEwMTAwMDAwMFoYDzIwMjMwMTAx
MDAwMDAwWjAaMRgwFgYDVQQDDA9TU0xCdW1wUHJveHkgQ0EwggEiMA0GCSqGSIb3
DQEBAQUAA4IBDwAwggEKAoIBAQDP46TBMzaucj3A3c4aGfnpZvPZu7hfcDlNS6O4
NWRyWy0WwwaXGBG/we6xigZZRi3F/Qf40a22a7YpOZdG1pvsDifI3yU3htoRdisM
JQxN2c7BWSROzMudLzgQsrycZ4VNv1UqMmxtjK4hUs8VFzsGwvH7Rvyp+2x28iIg
fvKo1ll54lErbXvU7u/zqsohK1XufQILgLK8yCd5cqurdWwjcZrmmRdu7KtbHHmg
ten3J1eXV/l+Hkde9JpwB+1QsAy9crtEircN0bkw+EuxZ+vzJ1zKmTlY34ucnMCh
iK5anxQxnqtw9XTAWqeH8vdug2bxXkyM8zU6Bdi0sMrL/fBDAgMBAAGjUDBOMB0G
A1UdDgQWBBRpyp5/Voc0uc0A9vHN8R3SXXzmITAfBgNVHSMEGDAWgBRpyp5/Voc0
uc0A9vHN8R3SXXzmITAMBgNVHRMEBTADAQH/MA0GCSqGSIb3DQEBBQUAA4IBAQBd
nAuXxwyMdAIr5Fj7eo6GhXU1d6M607iow3GqdYcnl+o193Yqq72IXaDzdeFSR0Oa
NbngEUvEQCQwH/qyqsBFBWW3xL3nKkqRCILbktmfIoz4vG39G5DlsRUkLG1GEMNK
7IBlBFzc50uyrPCD7jZHx6gXZxvTpwSO4O+3DsfGoTkL2GbOdQB+daTYBVeNUayb
l0pFVsPUb10aoCCl/XjKMSb8LZpeXUFRGE6puaLg7a9BThY2WuQo+L27ckCMvt9C
4Yv4RwpGfxkaV3LLRWCEAs0f8zADY/QDlZ4BN6kPQtla2WGoxkzm7hjRop40Sglf
g3CNLouQ7f9RMoQZ4FnY
-----END CERTIFICATE-----
